target datalayout = "e-m:e-p270:32:32-p271:32:32-p272:64:64-i64:64-i128:128-f80:128-n8:16:32:64-S128"
target triple = "x86_64-pc-linux-gnu"

%struct.clear_midx_data = type { ptr, i32, ptr }

@.str.13 = private unnamed_addr constant [23 x i8] c"multi-pack-index-%s.%s\00", align 1
@.str.66 = private unnamed_addr constant [27 x i8] c"size_t overflow: %lu * %lu\00", align 1

; Function Attrs: inlinehint nounwind uwtable
define internal i64 @st_mult(i64 noundef %0, i64 noundef %1) #2 {
  %3 = alloca i64, align 8
  %4 = alloca i64, align 8
  store i64 %0, ptr %3, align 8, !tbaa !11
  store i64 %1, ptr %4, align 8, !tbaa !11
  %5 = load i64, ptr %3, align 8, !tbaa !11
  %6 = icmp ne i64 %5, 0
  br i1 %6, label %7, label %15

7:                                                ; preds = %2
  %8 = load i64, ptr %4, align 8, !tbaa !11
  %9 = load i64, ptr %3, align 8, !tbaa !11
  %10 = udiv i64 -1, %9
  %11 = icmp ugt i64 %8, %10
  br i1 %11, label %12, label %15

12:                                               ; preds = %7
  %13 = load i64, ptr %3, align 8, !tbaa !11
  %14 = load i64, ptr %4, align 8, !tbaa !11
  call void (ptr, ...) @die(ptr noundef @.str.66, i64 noundef %13, i64 noundef %14) #14
  unreachable

15:                                               ; preds = %7, %2
  %16 = load i64, ptr %3, align 8, !tbaa !11
  %17 = load i64, ptr %4, align 8, !tbaa !11
  %18 = mul i64 %16, %17
  ret i64 %18
}

; Function Attrs: nounwind uwtable
define dso_local void @clear_midx_files_ext(ptr noundef %0, ptr noundef %1, ptr noundef %2) #0 {
  %4 = alloca ptr, align 8
  %5 = alloca ptr, align 8
  %6 = alloca ptr, align 8
  %7 = alloca %struct.clear_midx_data, align 8
  store ptr %0, ptr %4, align 8, !tbaa !9
  store ptr %1, ptr %5, align 8, !tbaa !9
  store ptr %2, ptr %6, align 8, !tbaa !9
  call void @llvm.lifetime.start.p0(i64 24, ptr %7) #13
  call void @llvm.memset.p0.i64(ptr align 8 %7, i8 0, i64 24, i1 false)
  %8 = load ptr, ptr %6, align 8, !tbaa !9
  %9 = icmp ne ptr %8, null
  br i1 %9, label %10, label %21

10:                                               ; preds = %3
  %11 = call i64 @st_mult(i64 noundef 8, i64 noundef 1)
  %12 = call ptr @xmalloc(i64 noundef %11)
  %13 = getelementptr inbounds nuw %struct.clear_midx_data, ptr %7, i32 0, i32 0
  store ptr %12, ptr %13, align 8, !tbaa !109
  %14 = load ptr, ptr %6, align 8, !tbaa !9
  %15 = load ptr, ptr %5, align 8, !tbaa !9
  %16 = call ptr (ptr, ...) @xstrfmt(ptr noundef @.str.13, ptr noundef %14, ptr noundef %15)
  %17 = getelementptr inbounds nuw %struct.clear_midx_data, ptr %7, i32 0, i32 0
  %18 = load ptr, ptr %17, align 8, !tbaa !109
  %19 = getelementptr inbounds ptr, ptr %18, i64 0
  store ptr %16, ptr %19, align 8, !tbaa !9
  %20 = getelementptr inbounds nuw %struct.clear_midx_data, ptr %7, i32 0, i32 1
  store i32 1, ptr %20, align 8, !tbaa !111
  br label %21

21:                                               ; preds = %10, %3
  %22 = load ptr, ptr %5, align 8, !tbaa !9
  %23 = getelementptr inbounds nuw %struct.clear_midx_data, ptr %7, i32 0, i32 2
  store ptr %22, ptr %23, align 8, !tbaa !112
  %24 = load ptr, ptr %4, align 8, !tbaa !9
  call void @for_each_file_in_pack_dir(ptr noundef %24, ptr noundef @clear_midx_file_ext, ptr noundef %7)
  %25 = load ptr, ptr %6, align 8, !tbaa !9
  %26 = icmp ne ptr %25, null
  br i1 %26, label %27, label %32

27:                                               ; preds = %21
  %28 = getelementptr inbounds nuw %struct.clear_midx_data, ptr %7, i32 0, i32 0
  %29 = load ptr, ptr %28, align 8, !tbaa !109
  %30 = getelementptr inbounds ptr, ptr %29, i64 0
  %31 = load ptr, ptr %30, align 8, !tbaa !9
  call void @free(ptr noundef %31) #13
  br label %32

32:                                               ; preds = %27, %21
  %33 = getelementptr inbounds nuw %struct.clear_midx_data, ptr %7, i32 0, i32 0
  %34 = load ptr, ptr %33, align 8, !tbaa !109
  call void @free(ptr noundef %34) #13
  call void @llvm.lifetime.end.p0(i64 24, ptr %7) #13
  ret void
}