; Function Attrs: nounwind uwtable
define dso_local void @clear_midx_files_ext(ptr noundef %0, ptr noundef %1, ptr noundef %2) local_unnamed_addr #1 {
  %4 = alloca %struct.clear_midx_data, align 8
  call void @llvm.lifetime.start.p0(i64 24, ptr nonnull %4) #22
  call void @llvm.memset.p0.i64(ptr noundef nonnull align 8 dereferenceable(24) %4, i8 0, i64 24, i1 false)
  %.not = icmp eq ptr %2, null
  br i1 %.not, label %.critedge, label %5

5:                                                ; preds = %3
  %6 = tail call ptr @xmalloc(i64 noundef 8) #22
  store ptr %6, ptr %4, align 8, !tbaa !98
  %7 = tail call ptr (ptr, ...) @xstrfmt(ptr noundef nonnull @.str.13, ptr noundef nonnull %2, ptr noundef %1) #22
  store ptr %7, ptr %6, align 8, !tbaa !4
  %8 = getelementptr inbounds nuw i8, ptr %4, i64 8
  store i32 1, ptr %8, align 8, !tbaa !100
  %9 = getelementptr inbounds nuw i8, ptr %4, i64 16
  store ptr %1, ptr %9, align 8, !tbaa !101
  call void @for_each_file_in_pack_dir(ptr noundef %0, ptr noundef nonnull @clear_midx_file_ext, ptr noundef nonnull %4) #22
  %10 = load ptr, ptr %4, align 8, !tbaa !98
  %11 = load ptr, ptr %10, align 8, !tbaa !4
  call void @free(ptr noundef %11) #22
  br label %13

.critedge:                                        ; preds = %3
  %12 = getelementptr inbounds nuw i8, ptr %4, i64 16
  store ptr %1, ptr %12, align 8, !tbaa !101
  call void @for_each_file_in_pack_dir(ptr noundef %0, ptr noundef nonnull @clear_midx_file_ext, ptr noundef nonnull %4) #22
  br label %13

13:                                               ; preds = %.critedge, %5
  %14 = load ptr, ptr %4, align 8, !tbaa !98
  call void @free(ptr noundef %14) #22
  call void @llvm.lifetime.end.p0(i64 24, ptr nonnull %4) #22
  ret void
}